target datalayout = "e-m:e-p270:32:32-p271:32:32-p272:64:64-i64:64-i128:128-f80:128-n8:16:32:64-S128"
target triple = "x86_64-pc-linux-gnu"

%struct.ccm128_context = type { %union.anon, %union.anon, i64, ptr, ptr }
%union.anon = type { [2 x i64] }
%union.anon.3 = type { [2 x i64] }

; Function Attrs: nounwind uwtable
define internal void @ctr64_add(ptr noundef %0, i64 noundef %1) #0 {
  %3 = alloca ptr, align 8
  %4 = alloca i64, align 8
  %5 = alloca i64, align 8
  %6 = alloca i64, align 8
  store ptr %0, ptr %3, align 8, !tbaa !17
  store i64 %1, ptr %4, align 8, !tbaa !19
  call void @llvm.lifetime.start.p0(i64 8, ptr %5) #4
  store i64 8, ptr %5, align 8, !tbaa !19
  call void @llvm.lifetime.start.p0(i64 8, ptr %6) #4
  store i64 0, ptr %6, align 8, !tbaa !19
  %7 = load ptr, ptr %3, align 8, !tbaa !17
  %8 = getelementptr inbounds i8, ptr %7, i64 8
  store ptr %8, ptr %3, align 8, !tbaa !17
  br label %9

9:                                                ; preds = %42, %2
  %10 = load i64, ptr %5, align 8, !tbaa !19
  %11 = add i64 %10, -1
  store i64 %11, ptr %5, align 8, !tbaa !19
  %12 = load ptr, ptr %3, align 8, !tbaa !17
  %13 = load i64, ptr %5, align 8, !tbaa !19
  %14 = getelementptr inbounds nuw i8, ptr %12, i64 %13
  %15 = load i8, ptr %14, align 1, !tbaa !11
  %16 = zext i8 %15 to i64
  %17 = load i64, ptr %4, align 8, !tbaa !19
  %18 = and i64 %17, 255
  %19 = add i64 %16, %18
  %20 = load i64, ptr %6, align 8, !tbaa !19
  %21 = add i64 %20, %19
  store i64 %21, ptr %6, align 8, !tbaa !19
  %22 = load i64, ptr %6, align 8, !tbaa !19
  %23 = trunc i64 %22 to i8
  %24 = load ptr, ptr %3, align 8, !tbaa !17
  %25 = load i64, ptr %5, align 8, !tbaa !19
  %26 = getelementptr inbounds nuw i8, ptr %24, i64 %25
  store i8 %23, ptr %26, align 1, !tbaa !11
  %27 = load i64, ptr %6, align 8, !tbaa !19
  %28 = lshr i64 %27, 8
  store i64 %28, ptr %6, align 8, !tbaa !19
  %29 = load i64, ptr %4, align 8, !tbaa !19
  %30 = lshr i64 %29, 8
  store i64 %30, ptr %4, align 8, !tbaa !19
  br label %31

31:                                               ; preds = %9
  %32 = load i64, ptr %5, align 8, !tbaa !19
  %33 = icmp ne i64 %32, 0
  br i1 %33, label %34, label %42

34:                                               ; preds = %31
  %35 = load i64, ptr %4, align 8, !tbaa !19
  %36 = icmp ne i64 %35, 0
  br i1 %36, label %40, label %37

37:                                               ; preds = %34
  %38 = load i64, ptr %6, align 8, !tbaa !19
  %39 = icmp ne i64 %38, 0
  br label %40

40:                                               ; preds = %37, %34
  %41 = phi i1 [ true, %34 ], [ %39, %37 ]
  br label %42

42:                                               ; preds = %40, %31
  %43 = phi i1 [ false, %31 ], [ %41, %40 ]
  br i1 %43, label %9, label %44, !llvm.loop !39

44:                                               ; preds = %42
  call void @llvm.lifetime.end.p0(i64 8, ptr %6) #4
  call void @llvm.lifetime.end.p0(i64 8, ptr %5) #4
  ret void
}

; Function Attrs: nounwind uwtable
define i32 @CRYPTO_ccm128_decrypt_ccm64(ptr noundef %0, ptr noundef %1, ptr noundef %2, i64 noundef %3, ptr noundef %4) #0 {
  %6 = alloca i32, align 4
  %7 = alloca ptr, align 8
  %8 = alloca ptr, align 8
  %9 = alloca ptr, align 8
  %10 = alloca i64, align 8
  %11 = alloca ptr, align 8
  %12 = alloca i64, align 8
  %13 = alloca i32, align 4
  %14 = alloca i32, align 4
  %15 = alloca i8, align 1
  %16 = alloca ptr, align 8
  %17 = alloca ptr, align 8
  %18 = alloca %union.anon.3, align 8
  %19 = alloca i32, align 4
  store ptr %0, ptr %7, align 8, !tbaa !3
  store ptr %1, ptr %8, align 8, !tbaa !17
  store ptr %2, ptr %9, align 8, !tbaa !17
  store i64 %3, ptr %10, align 8, !tbaa !19
  store ptr %4, ptr %11, align 8, !tbaa !10
  call void @llvm.lifetime.start.p0(i64 8, ptr %12) #4
  call void @llvm.lifetime.start.p0(i64 4, ptr %13) #4
  call void @llvm.lifetime.start.p0(i64 4, ptr %14) #4
  call void @llvm.lifetime.start.p0(i64 1, ptr %15) #4
  %20 = load ptr, ptr %7, align 8, !tbaa !3
  %21 = getelementptr inbounds nuw %struct.ccm128_context, ptr %20, i32 0, i32 0
  %22 = getelementptr inbounds [16 x i8], ptr %21, i64 0, i64 0
  %23 = load i8, ptr %22, align 8, !tbaa !11
  store i8 %23, ptr %15, align 1, !tbaa !11
  call void @llvm.lifetime.start.p0(i64 8, ptr %16) #4
  %24 = load ptr, ptr %7, align 8, !tbaa !3
  %25 = getelementptr inbounds nuw %struct.ccm128_context, ptr %24, i32 0, i32 3
  %26 = load ptr, ptr %25, align 8, !tbaa !15
  store ptr %26, ptr %16, align 8, !tbaa !10
  call void @llvm.lifetime.start.p0(i64 8, ptr %17) #4
  %27 = load ptr, ptr %7, align 8, !tbaa !3
  %28 = getelementptr inbounds nuw %struct.ccm128_context, ptr %27, i32 0, i32 4
  %29 = load ptr, ptr %28, align 8, !tbaa !16
  store ptr %29, ptr %17, align 8, !tbaa !10
  call void @llvm.lifetime.start.p0(i64 16, ptr %18) #4
  %30 = load i8, ptr %15, align 1, !tbaa !11
  %31 = zext i8 %30 to i32
  %32 = and i32 %31, 64
  %33 = icmp ne i32 %32, 0
  br i1 %33, label %43, label %34

34:                                               ; preds = %5
  %35 = load ptr, ptr %16, align 8, !tbaa !10
  %36 = load ptr, ptr %7, align 8, !tbaa !3
  %37 = getelementptr inbounds nuw %struct.ccm128_context, ptr %36, i32 0, i32 0
  %38 = getelementptr inbounds [16 x i8], ptr %37, i64 0, i64 0
  %39 = load ptr, ptr %7, align 8, !tbaa !3
  %40 = getelementptr inbounds nuw %struct.ccm128_context, ptr %39, i32 0, i32 1
  %41 = getelementptr inbounds [16 x i8], ptr %40, i64 0, i64 0
  %42 = load ptr, ptr %17, align 8, !tbaa !10
  call void %35(ptr noundef %38, ptr noundef %41, ptr noundef %42)
  br label %43

43:                                               ; preds = %34, %5
  %44 = load i8, ptr %15, align 1, !tbaa !11
  %45 = zext i8 %44 to i32
  %46 = and i32 %45, 7
  store i32 %46, ptr %14, align 4, !tbaa !8
  %47 = trunc i32 %46 to i8
  %48 = load ptr, ptr %7, align 8, !tbaa !3
  %49 = getelementptr inbounds nuw %struct.ccm128_context, ptr %48, i32 0, i32 0
  %50 = getelementptr inbounds [16 x i8], ptr %49, i64 0, i64 0
  store i8 %47, ptr %50, align 8, !tbaa !11
  store i64 0, ptr %12, align 8, !tbaa !19
  %51 = load i32, ptr %14, align 4, !tbaa !8
  %52 = sub i32 15, %51
  store i32 %52, ptr %13, align 4, !tbaa !8
  br label %53

53:                                               ; preds = %73, %43
  %54 = load i32, ptr %13, align 4, !tbaa !8
  %55 = icmp ult i32 %54, 15
  br i1 %55, label %56, label %76

56:                                               ; preds = %53
  %57 = load ptr, ptr %7, align 8, !tbaa !3
  %58 = getelementptr inbounds nuw %struct.ccm128_context, ptr %57, i32 0, i32 0
  %59 = load i32, ptr %13, align 4, !tbaa !8
  %60 = zext i32 %59 to i64
  %61 = getelementptr inbounds nuw [16 x i8], ptr %58, i64 0, i64 %60
  %62 = load i8, ptr %61, align 1, !tbaa !11
  %63 = zext i8 %62 to i64
  %64 = load i64, ptr %12, align 8, !tbaa !19
  %65 = or i64 %64, %63
  store i64 %65, ptr %12, align 8, !tbaa !19
  %66 = load ptr, ptr %7, align 8, !tbaa !3
  %67 = getelementptr inbounds nuw %struct.ccm128_context, ptr %66, i32 0, i32 0
  %68 = load i32, ptr %13, align 4, !tbaa !8
  %69 = zext i32 %68 to i64
  %70 = getelementptr inbounds nuw [16 x i8], ptr %67, i64 0, i64 %69
  store i8 0, ptr %70, align 1, !tbaa !11
  %71 = load i64, ptr %12, align 8, !tbaa !19
  %72 = shl i64 %71, 8
  store i64 %72, ptr %12, align 8, !tbaa !19
  br label %73

73:                                               ; preds = %56
  %74 = load i32, ptr %13, align 4, !tbaa !8
  %75 = add i32 %74, 1
  store i32 %75, ptr %13, align 4, !tbaa !8
  br label %53, !llvm.loop !40

76:                                               ; preds = %53
  %77 = load ptr, ptr %7, align 8, !tbaa !3
  %78 = getelementptr inbounds nuw %struct.ccm128_context, ptr %77, i32 0, i32 0
  %79 = getelementptr inbounds [16 x i8], ptr %78, i64 0, i64 15
  %80 = load i8, ptr %79, align 1, !tbaa !11
  %81 = zext i8 %80 to i64
  %82 = load i64, ptr %12, align 8, !tbaa !19
  %83 = or i64 %82, %81
  store i64 %83, ptr %12, align 8, !tbaa !19
  %84 = load ptr, ptr %7, align 8, !tbaa !3
  %85 = getelementptr inbounds nuw %struct.ccm128_context, ptr %84, i32 0, i32 0
  %86 = getelementptr inbounds [16 x i8], ptr %85, i64 0, i64 15
  store i8 1, ptr %86, align 1, !tbaa !11
  %87 = load i64, ptr %12, align 8, !tbaa !19
  %88 = load i64, ptr %10, align 8, !tbaa !19
  %89 = icmp ne i64 %87, %88
  br i1 %89, label %90, label %91

90:                                               ; preds = %76
  store i32 -1, ptr %6, align 4
  store i32 1, ptr %19, align 4
  br label %222

91:                                               ; preds = %76
  %92 = load i64, ptr %10, align 8, !tbaa !19
  %93 = udiv i64 %92, 16
  store i64 %93, ptr %12, align 8, !tbaa !19
  %94 = icmp ne i64 %93, 0
  br i1 %94, label %95, label %127

95:                                               ; preds = %91
  %96 = load ptr, ptr %11, align 8, !tbaa !10
  %97 = load ptr, ptr %8, align 8, !tbaa !17
  %98 = load ptr, ptr %9, align 8, !tbaa !17
  %99 = load i64, ptr %12, align 8, !tbaa !19
  %100 = load ptr, ptr %17, align 8, !tbaa !10
  %101 = load ptr, ptr %7, align 8, !tbaa !3
  %102 = getelementptr inbounds nuw %struct.ccm128_context, ptr %101, i32 0, i32 0
  %103 = getelementptr inbounds [16 x i8], ptr %102, i64 0, i64 0
  %104 = load ptr, ptr %7, align 8, !tbaa !3
  %105 = getelementptr inbounds nuw %struct.ccm128_context, ptr %104, i32 0, i32 1
  %106 = getelementptr inbounds [16 x i8], ptr %105, i64 0, i64 0
  call void %96(ptr noundef %97, ptr noundef %98, i64 noundef %99, ptr noundef %100, ptr noundef %103, ptr noundef %106)
  %107 = load i64, ptr %12, align 8, !tbaa !19
  %108 = mul i64 %107, 16
  store i64 %108, ptr %12, align 8, !tbaa !19
  %109 = load i64, ptr %12, align 8, !tbaa !19
  %110 = load ptr, ptr %8, align 8, !tbaa !17
  %111 = getelementptr inbounds nuw i8, ptr %110, i64 %109
  store ptr %111, ptr %8, align 8, !tbaa !17
  %112 = load i64, ptr %12, align 8, !tbaa !19
  %113 = load ptr, ptr %9, align 8, !tbaa !17
  %114 = getelementptr inbounds nuw i8, ptr %113, i64 %112
  store ptr %114, ptr %9, align 8, !tbaa !17
  %115 = load i64, ptr %12, align 8, !tbaa !19
  %116 = load i64, ptr %10, align 8, !tbaa !19
  %117 = sub i64 %116, %115
  store i64 %117, ptr %10, align 8, !tbaa !19
  %118 = load i64, ptr %10, align 8, !tbaa !19
  %119 = icmp ne i64 %118, 0
  br i1 %119, label %120, label %126

120:                                              ; preds = %95
  %121 = load ptr, ptr %7, align 8, !tbaa !3
  %122 = getelementptr inbounds nuw %struct.ccm128_context, ptr %121, i32 0, i32 0
  %123 = getelementptr inbounds [16 x i8], ptr %122, i64 0, i64 0
  %124 = load i64, ptr %12, align 8, !tbaa !19
  %125 = udiv i64 %124, 16
  call void @ctr64_add(ptr noundef %123, i64 noundef %125)
  br label %126

126:                                              ; preds = %120, %95
  br label %127

127:                                              ; preds = %126, %91
  %128 = load i64, ptr %10, align 8, !tbaa !19
  %129 = icmp ne i64 %128, 0
  br i1 %129, label %130, label %182

130:                                              ; preds = %127
  %131 = load ptr, ptr %16, align 8, !tbaa !10
  %132 = load ptr, ptr %7, align 8, !tbaa !3
  %133 = getelementptr inbounds nuw %struct.ccm128_context, ptr %132, i32 0, i32 0
  %134 = getelementptr inbounds [16 x i8], ptr %133, i64 0, i64 0
  %135 = getelementptr inbounds [16 x i8], ptr %18, i64 0, i64 0
  %136 = load ptr, ptr %17, align 8, !tbaa !10
  call void %131(ptr noundef %134, ptr noundef %135, ptr noundef %136)
  store i32 0, ptr %13, align 4, !tbaa !8
  br label %137

137:                                              ; preds = %170, %130
  %138 = load i32, ptr %13, align 4, !tbaa !8
  %139 = zext i32 %138 to i64
  %140 = load i64, ptr %10, align 8, !tbaa !19
  %141 = icmp ult i64 %139, %140
  br i1 %141, label %142, label %173

142:                                              ; preds = %137
  %143 = load i32, ptr %13, align 4, !tbaa !8
  %144 = zext i32 %143 to i64
  %145 = getelementptr inbounds nuw [16 x i8], ptr %18, i64 0, i64 %144
  %146 = load i8, ptr %145, align 1, !tbaa !11
  %147 = zext i8 %146 to i32
  %148 = load ptr, ptr %8, align 8, !tbaa !17
  %149 = load i32, ptr %13, align 4, !tbaa !8
  %150 = zext i32 %149 to i64
  %151 = getelementptr inbounds nuw i8, ptr %148, i64 %150
  %152 = load i8, ptr %151, align 1, !tbaa !11
  %153 = zext i8 %152 to i32
  %154 = xor i32 %147, %153
  %155 = trunc i32 %154 to i8
  %156 = load ptr, ptr %9, align 8, !tbaa !17
  %157 = load i32, ptr %13, align 4, !tbaa !8
  %158 = zext i32 %157 to i64
  %159 = getelementptr inbounds nuw i8, ptr %156, i64 %158
  store i8 %155, ptr %159, align 1, !tbaa !11
  %160 = zext i8 %155 to i32
  %161 = load ptr, ptr %7, align 8, !tbaa !3
  %162 = getelementptr inbounds nuw %struct.ccm128_context, ptr %161, i32 0, i32 1
  %163 = load i32, ptr %13, align 4, !tbaa !8
  %164 = zext i32 %163 to i64
  %165 = getelementptr inbounds nuw [16 x i8], ptr %162, i64 0, i64 %164
  %166 = load i8, ptr %165, align 1, !tbaa !11
  %167 = zext i8 %166 to i32
  %168 = xor i32 %167, %160
  %169 = trunc i32 %168 to i8
  store i8 %169, ptr %165, align 1, !tbaa !11
  br label %170

170:                                              ; preds = %142
  %171 = load i32, ptr %13, align 4, !tbaa !8
  %172 = add i32 %171, 1
  store i32 %172, ptr %13, align 4, !tbaa !8
  br label %137, !llvm.loop !41

173:                                              ; preds = %137
  %174 = load ptr, ptr %16, align 8, !tbaa !10
  %175 = load ptr, ptr %7, align 8, !tbaa !3
  %176 = getelementptr inbounds nuw %struct.ccm128_context, ptr %175, i32 0, i32 1
  %177 = getelementptr inbounds [16 x i8], ptr %176, i64 0, i64 0
  %178 = load ptr, ptr %7, align 8, !tbaa !3
  %179 = getelementptr inbounds nuw %struct.ccm128_context, ptr %178, i32 0, i32 1
  %180 = getelementptr inbounds [16 x i8], ptr %179, i64 0, i64 0
  %181 = load ptr, ptr %17, align 8, !tbaa !10
  call void %174(ptr noundef %177, ptr noundef %180, ptr noundef %181)
  br label %182

182:                                              ; preds = %173, %127
  %183 = load i32, ptr %14, align 4, !tbaa !8
  %184 = sub i32 15, %183
  store i32 %184, ptr %13, align 4, !tbaa !8
  br label %185

185:                                              ; preds = %194, %182
  %186 = load i32, ptr %13, align 4, !tbaa !8
  %187 = icmp ult i32 %186, 16
  br i1 %187, label %188, label %197

188:                                              ; preds = %185
  %189 = load ptr, ptr %7, align 8, !tbaa !3
  %190 = getelementptr inbounds nuw %struct.ccm128_context, ptr %189, i32 0, i32 0
  %191 = load i32, ptr %13, align 4, !tbaa !8
  %192 = zext i32 %191 to i64
  %193 = getelementptr inbounds nuw [16 x i8], ptr %190, i64 0, i64 %192
  store i8 0, ptr %193, align 1, !tbaa !11
  br label %194

194:                                              ; preds = %188
  %195 = load i32, ptr %13, align 4, !tbaa !8
  %196 = add i32 %195, 1
  store i32 %196, ptr %13, align 4, !tbaa !8
  br label %185, !llvm.loop !42

197:                                              ; preds = %185
  %198 = load ptr, ptr %16, align 8, !tbaa !10
  %199 = load ptr, ptr %7, align 8, !tbaa !3
  %200 = getelementptr inbounds nuw %struct.ccm128_context, ptr %199, i32 0, i32 0
  %201 = getelementptr inbounds [16 x i8], ptr %200, i64 0, i64 0
  %202 = getelementptr inbounds [16 x i8], ptr %18, i64 0, i64 0
  %203 = load ptr, ptr %17, align 8, !tbaa !10
  call void %198(ptr noundef %201, ptr noundef %202, ptr noundef %203)
  %204 = getelementptr inbounds [2 x i64], ptr %18, i64 0, i64 0
  %205 = load i64, ptr %204, align 8, !tbaa !11
  %206 = load ptr, ptr %7, align 8, !tbaa !3
  %207 = getelementptr inbounds nuw %struct.ccm128_context, ptr %206, i32 0, i32 1
  %208 = getelementptr inbounds [2 x i64], ptr %207, i64 0, i64 0
  %209 = load i64, ptr %208, align 8, !tbaa !11
  %210 = xor i64 %209, %205
  store i64 %210, ptr %208, align 8, !tbaa !11
  %211 = getelementptr inbounds [2 x i64], ptr %18, i64 0, i64 1
  %212 = load i64, ptr %211, align 8, !tbaa !11
  %213 = load ptr, ptr %7, align 8, !tbaa !3
  %214 = getelementptr inbounds nuw %struct.ccm128_context, ptr %213, i32 0, i32 1
  %215 = getelementptr inbounds [2 x i64], ptr %214, i64 0, i64 1
  %216 = load i64, ptr %215, align 8, !tbaa !11
  %217 = xor i64 %216, %212
  store i64 %217, ptr %215, align 8, !tbaa !11
  %218 = load i8, ptr %15, align 1, !tbaa !11
  %219 = load ptr, ptr %7, align 8, !tbaa !3
  %220 = getelementptr inbounds nuw %struct.ccm128_context, ptr %219, i32 0, i32 0
  %221 = getelementptr inbounds [16 x i8], ptr %220, i64 0, i64 0
  store i8 %218, ptr %221, align 8, !tbaa !11
  store i32 0, ptr %6, align 4
  store i32 1, ptr %19, align 4
  br label %222

222:                                              ; preds = %197, %90
  call void @llvm.lifetime.end.p0(i64 16, ptr %18) #4
  call void @llvm.lifetime.end.p0(i64 8, ptr %17) #4
  call void @llvm.lifetime.end.p0(i64 8, ptr %16) #4
  call void @llvm.lifetime.end.p0(i64 1, ptr %15) #4
  call void @llvm.lifetime.end.p0(i64 4, ptr %14) #4
  call void @llvm.lifetime.end.p0(i64 4, ptr %13) #4
  call void @llvm.lifetime.end.p0(i64 8, ptr %12) #4
  %223 = load i32, ptr %6, align 4
  ret i32 %223
}