; Function Attrs: nounwind uwtable
define range(i32 -1, 1) i32 @CRYPTO_ccm128_decrypt_ccm64(ptr noundef %0, ptr noundef %1, ptr noundef %2, i64 noundef %3, ptr noundef readonly captures(none) %4) local_unnamed_addr #5 {
  %6 = alloca %union.anon.3, align 8
  %7 = load i8, ptr %0, align 8, !tbaa !3
  %8 = getelementptr inbounds nuw i8, ptr %0, i64 40
  %9 = load ptr, ptr %8, align 8, !tbaa !10
  %10 = getelementptr inbounds nuw i8, ptr %0, i64 48
  %11 = load ptr, ptr %10, align 8, !tbaa !11
  call void @llvm.lifetime.start.p0(i64 16, ptr nonnull %6) #7
  %12 = zext i8 %7 to i32
  %13 = and i32 %12, 64
  %.not = icmp eq i32 %13, 0
  br i1 %.not, label %14, label %16

14:                                               ; preds = %5
  %15 = getelementptr inbounds nuw i8, ptr %0, i64 16
  tail call void %9(ptr noundef nonnull %0, ptr noundef nonnull %15, ptr noundef %11) #7
  br label %16

16:                                               ; preds = %14, %5
  %17 = and i32 %12, 7
  %18 = trunc nuw nsw i32 %17 to i8
  store i8 %18, ptr %0, align 8, !tbaa !3
  %19 = xor i32 %17, 15
  %.not96 = icmp eq i32 %17, 0
  br i1 %.not96, label %._crit_edge, label %.lr.ph.preheader

.lr.ph.preheader:                                 ; preds = %16
  %20 = zext nneg i32 %19 to i64
  %umax = tail call i32 @llvm.umax.i32(i32 %19, i32 14)
  %21 = add nuw nsw i32 %umax, 1
  %wide.trip.count = zext nneg i32 %21 to i64
  br label %.lr.ph

.lr.ph:                                           ; preds = %.lr.ph.preheader, %.lr.ph
  %indvars.iv = phi i64 [ %20, %.lr.ph.preheader ], [ %indvars.iv.next, %.lr.ph ]
  %.07690 = phi i64 [ 0, %.lr.ph.preheader ], [ %26, %.lr.ph ]
  %22 = getelementptr inbounds nuw [16 x i8], ptr %0, i64 0, i64 %indvars.iv
  %23 = load i8, ptr %22, align 1, !tbaa !3
  %24 = zext i8 %23 to i64
  %25 = or disjoint i64 %.07690, %24
  store i8 0, ptr %22, align 1, !tbaa !3
  %26 = shl i64 %25, 8
  %indvars.iv.next = add nuw nsw i64 %indvars.iv, 1
  %exitcond.not = icmp eq i64 %indvars.iv.next, %wide.trip.count
  br i1 %exitcond.not, label %._crit_edge, label %.lr.ph, !llvm.loop !28

._crit_edge:                                      ; preds = %.lr.ph, %16
  %.076.lcssa = phi i64 [ 0, %16 ], [ %26, %.lr.ph ]
  %27 = getelementptr inbounds nuw i8, ptr %0, i64 15
  %28 = load i8, ptr %27, align 1, !tbaa !3
  %29 = zext i8 %28 to i64
  %30 = or disjoint i64 %.076.lcssa, %29
  store i8 1, ptr %27, align 1, !tbaa !3
  %.not82 = icmp eq i64 %30, %3
  br i1 %.not82, label %31, label %81

31:                                               ; preds = %._crit_edge
  %32 = lshr i64 %3, 4
  %.not83 = icmp ult i64 %3, 16
  br i1 %.not83, label %ctr64_add.exit, label %33

33:                                               ; preds = %31
  %34 = getelementptr inbounds nuw i8, ptr %0, i64 16
  tail call void %4(ptr noundef %1, ptr noundef %2, i64 noundef %32, ptr noundef %11, ptr noundef nonnull %0, ptr noundef nonnull %34) #7
  %35 = and i64 %3, -16
  %36 = getelementptr inbounds nuw i8, ptr %1, i64 %35
  %37 = getelementptr inbounds nuw i8, ptr %2, i64 %35
  %38 = and i64 %3, 15
  %.not84 = icmp eq i64 %38, 0
  br i1 %.not84, label %._crit_edge95, label %39

39:                                               ; preds = %33
  %40 = getelementptr inbounds nuw i8, ptr %0, i64 8
  br label %41

41:                                               ; preds = %50, %39
  %.014.i = phi i64 [ %32, %39 ], [ %51, %50 ]
  %.013.i = phi i64 [ 8, %39 ], [ %42, %50 ]
  %.0.i = phi i64 [ 0, %39 ], [ %52, %50 ]
  %42 = add nsw i64 %.013.i, -1
  %43 = getelementptr inbounds nuw i8, ptr %40, i64 %42
  %44 = load i8, ptr %43, align 1, !tbaa !3
  %45 = zext i8 %44 to i64
  %46 = and i64 %.014.i, 255
  %47 = add nuw nsw i64 %.0.i, %46
  %48 = add nuw nsw i64 %47, %45
  %49 = trunc i64 %48 to i8
  store i8 %49, ptr %43, align 1, !tbaa !3
  %.not.i = icmp eq i64 %42, 0
  br i1 %.not.i, label %ctr64_add.exit, label %50

50:                                               ; preds = %41
  %51 = lshr i64 %.014.i, 8
  %52 = lshr i64 %48, 8
  %53 = icmp samesign ugt i64 %.014.i, 255
  %54 = icmp samesign ugt i64 %48, 255
  %55 = select i1 %53, i1 true, i1 %54
  br i1 %55, label %41, label %ctr64_add.exit, !llvm.loop !25

ctr64_add.exit:                                   ; preds = %50, %41, %31
  %.074 = phi i64 [ %3, %31 ], [ %38, %41 ], [ %38, %50 ]
  %.073 = phi ptr [ %2, %31 ], [ %37, %41 ], [ %37, %50 ]
  %.072 = phi ptr [ %1, %31 ], [ %36, %41 ], [ %36, %50 ]
  %.not85 = icmp eq i64 %.074, 0
  br i1 %.not85, label %._crit_edge95, label %56

56:                                               ; preds = %ctr64_add.exit
  call void %9(ptr noundef nonnull %0, ptr noundef nonnull %6, ptr noundef %11) #7
  %57 = getelementptr inbounds nuw i8, ptr %0, i64 16
  br label %58

58:                                               ; preds = %56, %58
  %indvars.iv98 = phi i64 [ 0, %56 ], [ %indvars.iv.next99, %58 ]
  %59 = getelementptr inbounds nuw [16 x i8], ptr %6, i64 0, i64 %indvars.iv98
  %60 = load i8, ptr %59, align 1, !tbaa !3
  %61 = getelementptr inbounds nuw i8, ptr %.072, i64 %indvars.iv98
  %62 = load i8, ptr %61, align 1, !tbaa !3
  %63 = xor i8 %62, %60
  %64 = getelementptr inbounds nuw i8, ptr %.073, i64 %indvars.iv98
  store i8 %63, ptr %64, align 1, !tbaa !3
  %65 = getelementptr inbounds nuw [16 x i8], ptr %57, i64 0, i64 %indvars.iv98
  %66 = load i8, ptr %65, align 1, !tbaa !3
  %67 = xor i8 %66, %63
  store i8 %67, ptr %65, align 1, !tbaa !3
  %indvars.iv.next99 = add nuw nsw i64 %indvars.iv98, 1
  %exitcond101.not = icmp eq i64 %indvars.iv.next99, %.074
  br i1 %exitcond101.not, label %68, label %58, !llvm.loop !29

68:                                               ; preds = %58
  call void %9(ptr noundef nonnull %57, ptr noundef nonnull %57, ptr noundef %11) #7
  br label %._crit_edge95

._crit_edge95:                                    ; preds = %33, %68, %ctr64_add.exit
  %69 = zext nneg i32 %19 to i64
  %scevgep = getelementptr i8, ptr %0, i64 %69
  %70 = sub nuw nsw i32 16, %19
  %71 = zext nneg i32 %70 to i64
  call void @llvm.memset.p0.i64(ptr noundef nonnull align 1 dereferenceable(1) %scevgep, i8 0, i64 %71, i1 false), !tbaa !3
  call void %9(ptr noundef nonnull %0, ptr noundef nonnull %6, ptr noundef %11) #7
  %72 = load i64, ptr %6, align 8, !tbaa !3
  %73 = getelementptr inbounds nuw i8, ptr %0, i64 16
  %74 = load i64, ptr %73, align 8, !tbaa !3
  %75 = xor i64 %74, %72
  store i64 %75, ptr %73, align 8, !tbaa !3
  %76 = getelementptr inbounds nuw i8, ptr %6, i64 8
  %77 = load i64, ptr %76, align 8, !tbaa !3
  %78 = getelementptr inbounds nuw i8, ptr %0, i64 24
  %79 = load i64, ptr %78, align 8, !tbaa !3
  %80 = xor i64 %79, %77
  store i64 %80, ptr %78, align 8, !tbaa !3
  store i8 %7, ptr %0, align 8, !tbaa !3
  br label %81

81:                                               ; preds = %._crit_edge, %._crit_edge95
  %.0 = phi i32 [ 0, %._crit_edge95 ], [ -1, %._crit_edge ]
  call void @llvm.lifetime.end.p0(i64 16, ptr nonnull %6) #7
  ret i32 %.0
}